target datalayout = "e-m:e-p270:32:32-p271:32:32-p272:64:64-i64:64-i128:128-f80:128-n8:16:32:64-S128"
target triple = "x86_64-pc-linux-gnu"

%class.JVMCIObject = type <{ ptr, i8, [7 x i8] }>
%class.JVMCIRuntime = type <{ i32, [4 x i8], %class.JVMCIObject, ptr, ptr, i32, i32, ptr, ptr, %class.GrowableArray, i32, i8, [3 x i8] }>
%class.GrowableArray = type { %class.GrowableArrayWithAllocator, %class.GrowableArrayMetadata }
%class.GrowableArrayWithAllocator = type { %class.GrowableArrayView }
%class.GrowableArrayView = type { %class.GrowableArrayBase, ptr }
%class.GrowableArrayBase = type { i32, i32 }
%class.GrowableArrayMetadata = type { i64 }

@.str = private unnamed_addr constant [41 x i8] c"src/hotspot/share/jvmci/jvmciRuntime.cpp\00", align 1
@g_assert_poison = external global ptr, align 8
@.str.83 = private unnamed_addr constant [62 x i8] c"guarantee(_HotSpotJVMCIRuntime_instance.is_non_null()) failed\00", align 1
@.str.84 = private unnamed_addr constant [24 x i8] c"NPE in JVMCI runtime %d\00", align 1

; Function Attrs: mustprogress nounwind uwtable
define linkonce_odr hidden noundef zeroext i1 @_ZNK11JVMCIObject11is_non_nullEv(ptr noundef nonnull align 8 dereferenceable(9) %0) #1 comdat align 2 {
  %2 = alloca ptr, align 8
  store ptr %0, ptr %2, align 8
  %3 = load ptr, ptr %2, align 8
  %4 = getelementptr inbounds %class.JVMCIObject, ptr %3, i32 0, i32 0
  %5 = load ptr, ptr %4, align 8
  %6 = icmp ne ptr %5, null
  ret i1 %6
}

; Function Attrs: mustprogress nounwind uwtable
define linkonce_odr hidden noundef zeroext i1 @_ZN12JVMCIRuntime34is_HotSpotJVMCIRuntime_initializedEv(ptr noundef nonnull align 8 dereferenceable(93) %0) #1 comdat align 2 {
  %2 = alloca ptr, align 8
  store ptr %0, ptr %2, align 8
  %3 = load ptr, ptr %2, align 8
  %4 = getelementptr inbounds %class.JVMCIRuntime, ptr %3, i32 0, i32 2
  %5 = call noundef zeroext i1 @_ZNK11JVMCIObject11is_non_nullEv(ptr noundef nonnull align 8 dereferenceable(9) %4)
  ret i1 %5
}

; Function Attrs: mustprogress nounwind uwtable
define hidden void @_ZN12JVMCIRuntime16initialize_JVMCIEP8JVMCIEnv(ptr noundef nonnull align 8 dereferenceable(93) %0, ptr noundef %1) #1 align 2 {
  %3 = alloca ptr, align 8
  %4 = alloca ptr, align 8
  %5 = alloca %class.JVMCIObject, align 8
  store ptr %0, ptr %3, align 8
  store ptr %1, ptr %4, align 8
  %6 = load ptr, ptr %3, align 8
  %7 = call noundef zeroext i1 @_ZN12JVMCIRuntime34is_HotSpotJVMCIRuntime_initializedEv(ptr noundef nonnull align 8 dereferenceable(93) %6)
  br i1 %7, label %36, label %8

8:                                                ; preds = %2
  %9 = load ptr, ptr %4, align 8
  call void @_ZN12JVMCIRuntime10initializeEP8JVMCIEnv(ptr noundef nonnull align 8 dereferenceable(93) %6, ptr noundef %9)
  %10 = load ptr, ptr %4, align 8
  %11 = call noundef zeroext i8 @_ZN8JVMCIEnv21has_pending_exceptionEv(ptr noundef nonnull align 8 dereferenceable(64) %10)
  %12 = icmp ne i8 %11, 0
  br i1 %12, label %13, label %14

13:                                               ; preds = %8
  br label %36

14:                                               ; preds = %8
  %15 = load ptr, ptr %4, align 8
  %16 = load ptr, ptr %4, align 8
  %17 = call { ptr, i8 } @_ZN8JVMCIEnv21call_JVMCI_getRuntimeEPS_(ptr noundef nonnull align 8 dereferenceable(64) %15, ptr noundef %16)
  %18 = getelementptr inbounds { ptr, i8 }, ptr %5, i32 0, i32 0
  %19 = extractvalue { ptr, i8 } %17, 0
  store ptr %19, ptr %18, align 8
  %20 = getelementptr inbounds { ptr, i8 }, ptr %5, i32 0, i32 1
  %21 = extractvalue { ptr, i8 } %17, 1
  store i8 %21, ptr %20, align 8
  %22 = load ptr, ptr %4, align 8
  %23 = call noundef zeroext i8 @_ZN8JVMCIEnv21has_pending_exceptionEv(ptr noundef nonnull align 8 dereferenceable(64) %22)
  %24 = icmp ne i8 %23, 0
  br i1 %24, label %25, label %26

25:                                               ; preds = %14
  br label %36

26:                                               ; preds = %14
  br label %27

27:                                               ; preds = %26
  %28 = getelementptr inbounds %class.JVMCIRuntime, ptr %6, i32 0, i32 2
  %29 = call noundef zeroext i1 @_ZNK11JVMCIObject11is_non_nullEv(ptr noundef nonnull align 8 dereferenceable(9) %28)
  br i1 %29, label %34, label %30

30:                                               ; preds = %27
  %31 = load ptr, ptr @g_assert_poison, align 8
  store i8 88, ptr %31, align 1
  %32 = getelementptr inbounds %class.JVMCIRuntime, ptr %6, i32 0, i32 6
  %33 = load i32, ptr %32, align 4
  call void (ptr, i32, ptr, ptr, ...) @_Z15report_vm_errorPKciS0_S0_z(ptr noundef @.str, i32 noundef 1503, ptr noundef @.str.83, ptr noundef @.str.84, i32 noundef %33) #13
  unreachable

34:                                               ; preds = %27
  br label %35

35:                                               ; preds = %34
  br label %36

36:                                               ; preds = %35, %25, %13, %2
  ret void
}