; Function Attrs: mustprogress nounwind uwtable
define hidden void @_ZN12JVMCIRuntime16initialize_JVMCIEP8JVMCIEnv(ptr nocapture noundef nonnull align 8 dereferenceable(93) %0, ptr noundef %1) local_unnamed_addr #0 align 2 {
  %3 = getelementptr inbounds i8, ptr %0, i64 8
  %4 = load ptr, ptr %3, align 8
  %.not8 = icmp eq ptr %4, null
  br i1 %.not8, label %5, label %16

5:                                                ; preds = %2
  tail call void @_ZN12JVMCIRuntime10initializeEP8JVMCIEnv(ptr noundef nonnull align 8 dereferenceable(93) %0, ptr noundef %1)
  %6 = tail call noundef zeroext i8 @_ZN8JVMCIEnv21has_pending_exceptionEv(ptr noundef nonnull align 8 dereferenceable(64) %1) #15
  %.not = icmp eq i8 %6, 0
  br i1 %.not, label %7, label %16

7:                                                ; preds = %5
  %8 = tail call { ptr, i8 } @_ZN8JVMCIEnv21call_JVMCI_getRuntimeEPS_(ptr noundef nonnull align 8 dereferenceable(64) %1, ptr noundef nonnull %1) #15
  %9 = tail call noundef zeroext i8 @_ZN8JVMCIEnv21has_pending_exceptionEv(ptr noundef nonnull align 8 dereferenceable(64) %1) #15
  %.not6 = icmp ne i8 %9, 0
  %10 = load ptr, ptr %3, align 8
  %11 = icmp ne ptr %10, null
  %or.cond = select i1 %.not6, i1 true, i1 %11
  br i1 %or.cond, label %16, label %12

12:                                               ; preds = %7
  %13 = load ptr, ptr @g_assert_poison, align 8
  store i8 88, ptr %13, align 1
  %14 = getelementptr inbounds i8, ptr %0, i64 44
  %15 = load i32, ptr %14, align 4
  tail call void (ptr, i32, ptr, ptr, ...) @_Z15report_vm_errorPKciS0_S0_z(ptr noundef nonnull @.str, i32 noundef 1503, ptr noundef nonnull @.str.83, ptr noundef nonnull @.str.84, i32 noundef %15) #17
  unreachable

16:                                               ; preds = %7, %5, %2
  ret void
}